; Function Attrs: nounwind uwtable
define ptr @Gia_ManSat3Init(ptr noundef readonly captures(none) %0) local_unnamed_addr #0 {
  %2 = tail call ptr @sat_solver3_new() #9
  %3 = getelementptr inbounds nuw i8, ptr %0, i64 16
  %4 = getelementptr inbounds nuw i8, ptr %0, i64 24
  br label %5

5:                                                ; preds = %9, %1
  %indvars.iv = phi i64 [ %indvars.iv.next, %9 ], [ 0, %1 ]
  %6 = load i32, ptr %3, align 8, !tbaa !3
  %7 = sext i32 %6 to i64
  %8 = icmp slt i64 %indvars.iv, %7
  br i1 %8, label %9, label %.loopexit

9:                                                ; preds = %5
  %10 = load ptr, ptr %4, align 8, !tbaa !14
  %11 = getelementptr inbounds nuw ptr, ptr %10, i64 %indvars.iv
  %12 = load ptr, ptr %11, align 8, !tbaa !15
  %indvars.iv.next = add nuw nsw i64 %indvars.iv, 1
  %13 = getelementptr inbounds nuw ptr, ptr %10, i64 %indvars.iv.next
  %14 = load ptr, ptr %13, align 8, !tbaa !15
  %15 = tail call i32 @sat_solver3_addclause(ptr noundef %2, ptr noundef %12, ptr noundef %14) #9
  %.not = icmp eq i32 %15, 0
  br i1 %.not, label %16, label %5, !llvm.loop !16

16:                                               ; preds = %9
  tail call void @sat_solver3_delete(ptr noundef %2) #9
  br label %.loopexit

.loopexit:                                        ; preds = %5, %16
  %.010 = phi ptr [ null, %16 ], [ %2, %5 ]
  ret ptr %.010
}